; Function Attrs: mustprogress nounwind uwtable
define internal fastcc void @_ZN4llvm15SmallVectorImplIN12_GLOBAL__N_111DecompEntryEE6appendIPKS2_vEEvT_S7_(ptr noundef nonnull align 8 dereferenceable(16) %0, ptr noundef %1, ptr noundef %2) unnamed_addr #0 align 2 {
  %4 = icmp eq ptr %1, %2
  br i1 %4, label %_ZN4llvm25SmallVectorTemplateCommonIN12_GLOBAL__N_111DecompEntryEvE20assertSafeToAddRangeEPKS2_S5_.exit, label %5

5:                                                ; preds = %3
  %6 = tail call noundef i64 @_ZNK4llvm15SmallVectorBaseIjE4sizeEv(ptr noundef nonnull align 8 dereferenceable(16) %0) #21
  %7 = tail call noundef i64 @_ZNK4llvm15SmallVectorBaseIjE4sizeEv(ptr noundef nonnull align 8 dereferenceable(16) %0) #21
  br label %_ZN4llvm25SmallVectorTemplateCommonIN12_GLOBAL__N_111DecompEntryEvE20assertSafeToAddRangeEPKS2_S5_.exit

_ZN4llvm25SmallVectorTemplateCommonIN12_GLOBAL__N_111DecompEntryEvE20assertSafeToAddRangeEPKS2_S5_.exit: ; preds = %3, %5
  %8 = ptrtoint ptr %2 to i64
  %9 = ptrtoint ptr %1 to i64
  %10 = sub i64 %8, %9
  %11 = sdiv exact i64 %10, 24
  %12 = tail call noundef i64 @_ZNK4llvm15SmallVectorBaseIjE4sizeEv(ptr noundef nonnull align 8 dereferenceable(16) %0) #21
  %13 = add i64 %12, %11
  %14 = tail call noundef i64 @_ZNK4llvm15SmallVectorBaseIjE8capacityEv(ptr noundef nonnull align 8 dereferenceable(16) %0) #21
  %15 = icmp ult i64 %14, %13
  br i1 %15, label %16, label %_ZN4llvm15SmallVectorImplIN12_GLOBAL__N_111DecompEntryEE7reserveEm.exit

16:                                               ; preds = %_ZN4llvm25SmallVectorTemplateCommonIN12_GLOBAL__N_111DecompEntryEvE20assertSafeToAddRangeEPKS2_S5_.exit
  %17 = getelementptr inbounds i8, ptr %0, i64 16
  tail call void @_ZN4llvm15SmallVectorBaseIjE8grow_podEPvmm(ptr noundef nonnull align 8 dereferenceable(16) %0, ptr noundef nonnull %17, i64 noundef %13, i64 noundef 24) #21
  br label %_ZN4llvm15SmallVectorImplIN12_GLOBAL__N_111DecompEntryEE7reserveEm.exit

_ZN4llvm15SmallVectorImplIN12_GLOBAL__N_111DecompEntryEE7reserveEm.exit: ; preds = %_ZN4llvm25SmallVectorTemplateCommonIN12_GLOBAL__N_111DecompEntryEvE20assertSafeToAddRangeEPKS2_S5_.exit, %16
  %.val.i = load ptr, ptr %0, align 8
  %18 = tail call noundef i64 @_ZNK4llvm15SmallVectorBaseIjE4sizeEv(ptr noundef nonnull align 8 dereferenceable(16) %0) #21
  br i1 %4, label %_ZN4llvm23SmallVectorTemplateBaseIN12_GLOBAL__N_111DecompEntryELb1EE18uninitialized_copyIKS2_S2_EEvPT_S7_PT0_PNSt9enable_ifIXsr3std7is_sameINSt12remove_constIS6_E4typeES8_EE5valueEvE4typeE.exit, label %19

19:                                               ; preds = %_ZN4llvm15SmallVectorImplIN12_GLOBAL__N_111DecompEntryEE7reserveEm.exit
  %20 = getelementptr inbounds %"struct.(anonymous namespace)::DecompEntry", ptr %.val.i, i64 %18
  tail call void @llvm.memcpy.p0.p0.i64(ptr align 1 %20, ptr align 8 %1, i64 %10, i1 false)
  br label %_ZN4llvm23SmallVectorTemplateBaseIN12_GLOBAL__N_111DecompEntryELb1EE18uninitialized_copyIKS2_S2_EEvPT_S7_PT0_PNSt9enable_ifIXsr3std7is_sameINSt12remove_constIS6_E4typeES8_EE5valueEvE4typeE.exit

_ZN4llvm23SmallVectorTemplateBaseIN12_GLOBAL__N_111DecompEntryELb1EE18uninitialized_copyIKS2_S2_EEvPT_S7_PT0_PNSt9enable_ifIXsr3std7is_sameINSt12remove_constIS6_E4typeES8_EE5valueEvE4typeE.exit: ; preds = %_ZN4llvm15SmallVectorImplIN12_GLOBAL__N_111DecompEntryEE7reserveEm.exit, %19
  %21 = tail call noundef i64 @_ZNK4llvm15SmallVectorBaseIjE4sizeEv(ptr noundef nonnull align 8 dereferenceable(16) %0) #21
  %22 = add i64 %21, %11
  tail call void @_ZN4llvm15SmallVectorBaseIjE8set_sizeEm(ptr noundef nonnull align 8 dereferenceable(16) %0, i64 noundef %22) #21
  ret void
}